; Function Attrs: nounwind uwtable
define range(i32 -1, 1) i32 @H5Pget_relax_file_integrity_checks(i64 noundef %0, ptr noundef %1) local_unnamed_addr #0 {
  %3 = alloca %struct.H5CX_node_t, align 8
  call void @llvm.lifetime.start.p0(i64 480, ptr nonnull %3) #15
  call void @llvm.memset.p0.i64(ptr noundef nonnull align 8 dereferenceable(480) %3, i8 0, i64 480, i1 false)
  %4 = load i8, ptr @H5_libinit_g, align 1, !tbaa !16, !range !18, !noundef !19
  %5 = trunc nuw i8 %4 to i1
  %6 = load i8, ptr @H5_libterm_g, align 1, !range !18
  %7 = trunc nuw i8 %6 to i1
  %8 = select i1 %5, i1 true, i1 %7
  br i1 %8, label %16, label %9, !prof !20

9:                                                ; preds = %2
  %10 = tail call i32 @H5_init_library() #15
  %11 = icmp slt i32 %10, 0
  br i1 %11, label %12, label %._crit_edge, !prof !28

._crit_edge:                                      ; preds = %9
  %.pre = load i8, ptr @H5_libterm_g, align 1, !range !18
  br label %16

12:                                               ; preds = %9
  %13 = load i64, ptr @H5E_FUNC_g, align 8, !tbaa !3
  %14 = load i64, ptr @H5E_CANTINIT_g, align 8, !tbaa !3
  %15 = tail call i32 (ptr, ptr, i32, i64, i64, ptr, ...) @H5E_printf_stack(ptr noundef nonnull @.str.2, ptr noundef nonnull @__func__.H5Pget_relax_file_integrity_checks, i32 noundef 6331, i64 noundef %13, i64 noundef %14, ptr noundef nonnull @.str.15) #15
  br label %.thread26

16:                                               ; preds = %._crit_edge, %2
  %17 = phi i8 [ %.pre, %._crit_edge ], [ %6, %2 ]
  %18 = load i8, ptr @H5P_init_g, align 1, !tbaa !16, !range !18, !noundef !19
  %19 = trunc nuw i8 %18 to i1
  %20 = trunc nuw i8 %17 to i1
  %21 = select i1 %19, i1 true, i1 %20
  br i1 %21, label %29, label %22, !prof !20

22:                                               ; preds = %16
  store i8 1, ptr @H5P_init_g, align 1, !tbaa !16
  %23 = tail call i32 @H5P__init_package() #15
  %24 = icmp slt i32 %23, 0
  br i1 %24, label %25, label %29, !prof !29

25:                                               ; preds = %22
  store i8 0, ptr @H5P_init_g, align 1, !tbaa !16
  %26 = load i64, ptr @H5E_FUNC_g, align 8, !tbaa !3
  %27 = load i64, ptr @H5E_CANTINIT_g, align 8, !tbaa !3
  %28 = tail call i32 (ptr, ptr, i32, i64, i64, ptr, ...) @H5E_printf_stack(ptr noundef nonnull @.str.2, ptr noundef nonnull @__func__.H5Pget_relax_file_integrity_checks, i32 noundef 6331, i64 noundef %26, i64 noundef %27, ptr noundef nonnull @.str.16) #15
  br label %.thread26

29:                                               ; preds = %16, %22
  %30 = call i32 @H5CX_push(ptr noundef nonnull %3) #15
  %31 = icmp slt i32 %30, 0
  br i1 %31, label %32, label %36, !prof !28

32:                                               ; preds = %29
  %33 = load i64, ptr @H5E_FUNC_g, align 8, !tbaa !3
  %34 = load i64, ptr @H5E_CANTSET_g, align 8, !tbaa !3
  %35 = call i32 (ptr, ptr, i32, i64, i64, ptr, ...) @H5E_printf_stack(ptr noundef nonnull @.str.2, ptr noundef nonnull @__func__.H5Pget_relax_file_integrity_checks, i32 noundef 6331, i64 noundef %33, i64 noundef %34, ptr noundef nonnull @.str.17) #15
  br label %.thread26

36:                                               ; preds = %29
  %37 = call i32 @H5E_clear_stack() #15
  %38 = icmp eq i64 %0, 0
  %39 = load i64, ptr @H5P_LST_FILE_ACCESS_ID_g, align 8
  %spec.select = select i1 %38, i64 %39, i64 %0
  %40 = load i64, ptr @H5P_CLS_FILE_ACCESS_ID_g, align 8, !tbaa !3
  %41 = call ptr @H5P_object_verify(i64 noundef %spec.select, i64 noundef %40, i1 noundef zeroext true) #15
  %42 = icmp eq ptr %41, null
  br i1 %42, label %43, label %47, !prof !30

43:                                               ; preds = %36
  %44 = load i64, ptr @H5E_ARGS_g, align 8, !tbaa !3
  %45 = load i64, ptr @H5E_BADVALUE_g, align 8, !tbaa !3
  %46 = call i32 (ptr, ptr, i32, i64, i64, ptr, ...) @H5E_printf_stack(ptr noundef nonnull @.str.2, ptr noundef nonnull @__func__.H5Pget_relax_file_integrity_checks, i32 noundef 6338, i64 noundef %44, i64 noundef %45, ptr noundef nonnull @.str.123) #15
  br label %.thread32

47:                                               ; preds = %36
  %.not = icmp eq ptr %1, null
  br i1 %.not, label %56, label %48

48:                                               ; preds = %47
  %49 = call i32 @H5P_get(ptr noundef nonnull %41, ptr noundef nonnull @.str.167, ptr noundef nonnull %1) #15
  %50 = icmp slt i32 %49, 0
  br i1 %50, label %51, label %56, !prof !30

51:                                               ; preds = %48
  %52 = load i64, ptr @H5E_PLIST_g, align 8, !tbaa !3
  %53 = load i64, ptr @H5E_CANTGET_g, align 8, !tbaa !3
  %54 = call i32 (ptr, ptr, i32, i64, i64, ptr, ...) @H5E_printf_stack(ptr noundef nonnull @.str.2, ptr noundef nonnull @__func__.H5Pget_relax_file_integrity_checks, i32 noundef 6343, i64 noundef %52, i64 noundef %53, ptr noundef nonnull @.str.169) #15
  br label %.thread32

.thread32:                                        ; preds = %51, %43
  %55 = call i32 @H5CX_pop(i1 noundef zeroext true) #15
  br label %.thread26

56:                                               ; preds = %47, %48
  %57 = call i32 @H5CX_pop(i1 noundef zeroext true) #15
  br label %59

.thread26:                                        ; preds = %32, %25, %12, %.thread32
  %58 = call i32 @H5E_dump_api_stack() #15
  br label %59

59:                                               ; preds = %56, %.thread26
  %.0132129 = phi i32 [ -1, %.thread26 ], [ 0, %56 ]
  call void @llvm.lifetime.end.p0(i64 480, ptr nonnull %3) #15
  ret i32 %.0132129
}